; Function Attrs: inlinehint mustprogress nounwind optsize uwtable
define internal noundef nonnull ptr @"_ZZN8nanobind6detail11func_createILb0ELb1EZL30nanobind_init_test_classes_extRNS_7module_EE4$_31bJP6StructEJLm0EEJNS_5scopeENS_4nameENS_3argEEEEP7_objectOT1_PFT2_DpT3_ESt16integer_sequenceImJXspT4_EEEDpRKT5_ENUlPvPSB_PhNS_9rv_policyEPNS0_12cleanup_listEE_8__invokeESP_SQ_SR_SS_SU_"(ptr readnone captures(none) %0, ptr noundef readonly captures(none) %1, ptr noundef readonly captures(none) %2, i32 %3, ptr noundef %4) #20 align 2 personality ptr @__gxx_personality_v0 {
  %6 = alloca %"struct.nanobind::detail::tuple.214", align 8
  call void @llvm.lifetime.start.p0(i64 8, ptr nonnull %6) #37
  %7 = load ptr, ptr %1, align 8, !tbaa !23
  %8 = load i8, ptr %2, align 1, !tbaa !61
  %9 = call noundef zeroext i1 @_ZN8nanobind6detail11nb_type_getEPKSt9type_infoP7_objecthPNS0_12cleanup_listEPPv(ptr noundef nonnull @_ZTI6Struct, ptr noundef %7, i8 noundef zeroext %8, ptr noundef %4, ptr noundef nonnull align 8 dereferenceable(8) %6) #35
  br i1 %9, label %10, label %"_ZZN8nanobind6detail11func_createILb0ELb1EZL30nanobind_init_test_classes_extRNS_7module_EE4$_31bJP6StructEJLm0EEJNS_5scopeENS_4nameENS_3argEEEEP7_objectOT1_PFT2_DpT3_ESt16integer_sequenceImJXspT4_EEEDpRKT5_ENKUlPvPSB_PhNS_9rv_policyEPNS0_12cleanup_listEE_clESP_SQ_SR_SS_SU_.exit"

10:                                               ; preds = %5
  %11 = load ptr, ptr %6, align 8, !tbaa !202
  %12 = icmp eq ptr %11, null
  %13 = select i1 %12, ptr @_Py_TrueStruct, ptr @_Py_FalseStruct
  %14 = load i64, ptr %13, align 8, !tbaa !86
  %15 = add nsw i64 %14, 1
  store i64 %15, ptr %13, align 8, !tbaa !86
  br label %"_ZZN8nanobind6detail11func_createILb0ELb1EZL30nanobind_init_test_classes_extRNS_7module_EE4$_31bJP6StructEJLm0EEJNS_5scopeENS_4nameENS_3argEEEEP7_objectOT1_PFT2_DpT3_ESt16integer_sequenceImJXspT4_EEEDpRKT5_ENKUlPvPSB_PhNS_9rv_policyEPNS0_12cleanup_listEE_clESP_SQ_SR_SS_SU_.exit"

"_ZZN8nanobind6detail11func_createILb0ELb1EZL30nanobind_init_test_classes_extRNS_7module_EE4$_31bJP6StructEJLm0EEJNS_5scopeENS_4nameENS_3argEEEEP7_objectOT1_PFT2_DpT3_ESt16integer_sequenceImJXspT4_EEEDpRKT5_ENKUlPvPSB_PhNS_9rv_policyEPNS0_12cleanup_listEE_clESP_SQ_SR_SS_SU_.exit": ; preds = %5, %10
  %.0.i = phi ptr [ %13, %10 ], [ inttoptr (i64 1 to ptr), %5 ]
  call void @llvm.lifetime.end.p0(i64 8, ptr nonnull %6) #37
  ret ptr %.0.i
}